; Function Attrs: mustprogress nofree norecurse nosync nounwind willreturn memory(argmem: read) uwtable
define noundef zeroext i1 @_ZNK8proxygen8Sampling7isLuckyEN5folly5RangeIPKcEE(ptr nocapture noundef nonnull readonly align 8 dereferenceable(20) %this, ptr %key.coerce0, ptr %key.coerce1) local_unnamed_addr #6 align 2 personality ptr @__gxx_personality_v0 {
entry:
  %weight_ = getelementptr inbounds i8, ptr %this, i64 16
  %0 = load i32, ptr %weight_, align 8
  switch i32 %0, label %if.end5 [
    i32 1, label %return
    i32 0, label %if.then4
  ]

if.then4:                                         ; preds = %entry
  br label %return

if.end5:                                          ; preds = %entry
  %sub.ptr.lhs.cast.i = ptrtoint ptr %key.coerce1 to i64
  %sub.ptr.rhs.cast.i = ptrtoint ptr %key.coerce0 to i64
  %sub.ptr.sub.i = sub i64 %sub.ptr.lhs.cast.i, %sub.ptr.rhs.cast.i
  %cmp4.not.i = icmp eq ptr %key.coerce1, %key.coerce0
  br i1 %cmp4.not.i, label %_ZN5folly4hash9fnv32_bufIcTnNSt9enable_ifIXsr6detailE18is_hashable_byte_vIT_EEiE4typeELi0EEEjPKS3_mj.exit, label %for.body.i

for.body.i:                                       ; preds = %if.end5, %for.body.i
  %i.06.i = phi i64 [ %inc.i, %for.body.i ], [ 0, %if.end5 ]
  %hash.addr.05.i = phi i32 [ %xor.i.i, %for.body.i ], [ -2128831035, %if.end5 ]
  %arrayidx.i = getelementptr inbounds i8, ptr %key.coerce0, i64 %i.06.i
  %1 = load i8, ptr %arrayidx.i, align 1
  %add8.i.i = mul i32 %hash.addr.05.i, 16777619
  %conv.i.i = sext i8 %1 to i32
  %xor.i.i = xor i32 %add8.i.i, %conv.i.i
  %inc.i = add nuw i64 %i.06.i, 1
  %exitcond.not.i = icmp eq i64 %inc.i, %sub.ptr.sub.i
  br i1 %exitcond.not.i, label %_ZN5folly4hash9fnv32_bufIcTnNSt9enable_ifIXsr6detailE18is_hashable_byte_vIT_EEiE4typeELi0EEEjPKS3_mj.exit, label %for.body.i, !llvm.loop !4

_ZN5folly4hash9fnv32_bufIcTnNSt9enable_ifIXsr6detailE18is_hashable_byte_vIT_EEiE4typeELi0EEEjPKS3_mj.exit: ; preds = %for.body.i, %if.end5
  %hash.addr.0.lcssa.i = phi i32 [ -2128831035, %if.end5 ], [ %xor.i.i, %for.body.i ]
  %rate_.i = getelementptr inbounds i8, ptr %this, i64 8
  %2 = load double, ptr %rate_.i, align 8
  %mul.i.i = fmul double %2, 0x41EFFFFFFFE00000
  %conv1.i.i = fptoui double %mul.i.i to i32
  %cmp9 = icmp ult i32 %hash.addr.0.lcssa.i, %conv1.i.i
  br label %return

return:                                           ; preds = %entry, %_ZN5folly4hash9fnv32_bufIcTnNSt9enable_ifIXsr6detailE18is_hashable_byte_vIT_EEiE4typeELi0EEEjPKS3_mj.exit, %if.then4
  %retval.0 = phi i1 [ false, %if.then4 ], [ %cmp9, %_ZN5folly4hash9fnv32_bufIcTnNSt9enable_ifIXsr6detailE18is_hashable_byte_vIT_EEiE4typeELi0EEEjPKS3_mj.exit ], [ true, %entry ]
  ret i1 %retval.0
}